(dp0
I0
(lp1
I628
asI1
(lp2
I638
asI2
(lp3
I649
asI3
(lp4
I655
asI4
(lp5
I661
asI5
(lp6
I699
asI6
(lp7
I725
asI7
(lp8
I768
aI806
asI8
(lp9
I811
asI9
(lp10
I916
asI10
(lp11
I917
asI11
(lp12
I1009
asI12
(lp13
I957
asI13
(lp14
I959
asI14
(lp15
I1056
asI15
(lp16
I1055
asI16
(lp17
I1028
asI17
(lp18
I1155
asI18
(lp19
I1096
asI19
(lp20
I1095
asI20
(lp21
I1255
asI21
(lp22
I1168
asI22
(lp23
I1181
asI23
(lp24
I1199
aI1312
asI24
(lp25
I1273
asI25
(lp26
I1296
aI1297
asI26
(lp27
I1385
aI1387
aI1414
aI1416
aI1711
aI1716
asI27
(lp28
I1574
asI28
(lp29
I1791
asI29
(lp30
I1950
aI1952
asI30
(lp31
I1831
asI31
(lp32
I2032
asI32
(lp33
I1241
aI2037
asI33
(lp34
I1148
asI34
(lp35
I924
asI35
(lp36
I940
aI1559
aI1876
asI36
(lp37
I923
aI1473
aI1612
asI37
(lp38
I824
asI38
(lp39
I706
asI39
(lp40
I769
asI40
(lp41
I956
asI41
(lp42
I1577
asI42
(lp43
I1029
asI43
(lp44
I1718
asI44
(lp45
I1089
asI45
(lp46
I1061
asI46
(lp47
I1588
asI47
(lp48
I795
asI48
(lp49
I1874
asI49
(lp50
I1624
asI50
(lp51
I1486
asI51
(lp52
I1186
asI52
(lp53
I1886
asI53
(lp54
I1040
asI54
(lp55
I787
asI55
(lp56
I948
asI56
(lp57
I1194
asI57
(lp58
I1031
asI58
(lp59
I2006
asI59
(lp60
I1628
asI60
(lp61
I1054
asI61
(lp62
I1820
asI62
(lp63
I1597
asI63
(lp64
I2038
asI64
(lp65
I1845
asI65
(lp66
I1300
asI66
(lp67
I840
asI67
(lp68
I1687
asI68
(lp69
I1578
asI69
(lp70
I1970
asI70
(lp71
I1546
asI71
(lp72
I797
asI72
(lp73
I1581
aI1764
asI73
(lp74
I1587
asI74
(lp75
I1205
asI75
(lp76
I979
aI1026
aI1425
aI1515
aI1879
asI76
(lp77
I1669
asI77
(lp78
I1943
asI78
(lp79
I1948
asI79
(lp80
I2019
asI80
(lp81
I1154
asI81
(lp82
I651
asI82
(lp83
I1292
asI83
(lp84
I2050
asI84
(lp85
I2047
asI85
(lp86
I926
asI86
(lp87
I633
aI1532
asI87
(lp88
I734
asI88
(lp89
I2033
asI89
(lp90
I1650
asI90
(lp91
I2053
asI91
(lp92
I1225
aI1878
asI92
(lp93
I1350
asI93
(lp94
I1215
aI1672
asI94
(lp95
I613
aI1348
asI95
(lp96
I744
aI992
aI2010
asI96
(lp97
I1922
aI2042
asI97
(lp98
I880
aI1822
aI2026
asI98
(lp99
I1311
aI1326
asI99
(lp100
I793
aI2011
asI100
(lp101
I1407
aI2056
asI101
(lp102
I758
aI919
aI1185
aI1204
aI1340
aI1580
aI1743
aI1989
asI102
(lp103
I138
aI825
aI947
aI1099
aI1242
aI1852
asI103
(lp104
I981
aI1202
aI1356
asI104
(lp105
I1081
aI1806
asI105
(lp106
I76
aI239
aI1991
aI1992
asI106
(lp107
I86
aI159
aI529
aI587
aI665
aI964
aI1042
aI1151
aI1733
aI1909
asI107
(lp108
I450
aI516
aI519
aI1082
aI1573
aI1783
aI1786
aI1792
aI1793
aI1794
aI1795
asI108
(lp109
I242
asI109
(lp110
I1170
asI110
(lp111
I217
asI111
(lp112
I155
aI161
aI801
aI1045
asI112
(lp113
I162
aI1003
aI1012
asI113
(lp114
I1123
asI114
(lp115
I121
asI115
(lp116
I881
asI116
(lp117
I103
asI117
(lp118
I70
asI118
(lp119
I820
asI119
(lp120
I696
aI712
asI120
(lp121
I1264
asI121
(lp122
I44
aI792
asI122
(lp123
I43
asI123
(lp124
I771
asI124
(lp125
I636
asI125
(lp126
I643
asI126
(lp127
I678
asI127
(lp128
I802
asI128
(lp129
I2052
asI129
(lp130
I1064
asI130
(lp131
I112
asI131
(lp132
I969
asI132
(lp133
I1900
asI133
(lp134
I1812
asI134
(lp135
I635
asI135
(lp136
I634
asI136
(lp137
I1075
asI137
(lp138
I347
asI138
(lp139
I1861
asI139
(lp140
I660
aI1690
asI140
(lp141
I200
aI478
asI141
(lp142
I1898
asI142
(lp143
I123
asI143
(lp144
I283
asI144
(lp145
I1745
asI145
(lp146
I153
asI146
(lp147
I514
asI147
(lp148
I545
asI148
(lp149
I205
aI206
aI356
aI370
aI573
aI1498
aI1659
aI1712
asI149
(lp150
I1531
asI150
(lp151
I581
asI151
(lp152
I1419
asI152
(lp153
I1738
asI153
(lp154
I541
asI154
(lp155
I538
asI155
(lp156
I1303
asI156
(lp157
I1286
asI157
(lp158
I467
asI158
(lp159
I1214
asI159
(lp160
I1228
asI160
(lp161
I1257
asI161
(lp162
I163
asI162
(lp163
I248
asI163
(lp164
I168
asI164
(lp165
I812
aI815
asI165
(lp166
I154
asI166
(lp167
I760
asI167
(lp168
I14
asI168
(lp169
I690
asI169
(lp170
I16
asI170
(lp171
I363
aI1203
aI1842
asI171
(lp172
I639
aI1474
aI1491
asI172
(lp173
I304
aI455
aI675
aI1747
asI173
(lp174
I908
aI1774
asI174
(lp175
I621
asI175
(lp176
I120
aI251
aI287
aI646
aI798
aI870
aI909
aI922
aI1059
aI1074
aI1220
aI1770
aI1858
aI2003
asI176
(lp177
I971
aI1853
asI177
(lp178
I1218
asI178
(lp179
I1319
asI179
(lp180
I323
asI180
(lp181
I2017
asI181
(lp182
I785
aI1493
asI182
(lp183
I1848
aI1859
asI183
(lp184
I895
asI184
(lp185
I967
aI968
asI185
(lp186
I276
asI186
(lp187
I1411
aI1753
asI187
(lp188
I83
asI188
(lp189
I1063
asI189
(lp190
I2054
asI190
(lp191
I1450
asI191
(lp192
I670
asI192
(lp193
I10
asI193
(lp194
I677
asI194
(lp195
I939
asI195
(lp196
I719
aI729
asI196
(lp197
I976
asI197
(lp198
I75
aI875
asI198
(lp199
I822
asI199
(lp200
I830
asI200
(lp201
I946
asI201
(lp202
I107
asI202
(lp203
I146
aI1014
asI203
(lp204
I1020
asI204
(lp205
I1052
asI205
(lp206
I1270
asI206
(lp207
I1271
asI207
(lp208
I1266
asI208
(lp209
I263
asI209
(lp210
I264
asI210
(lp211
I1144
asI211
(lp212
I213
asI212
(lp213
I1609
asI213
(lp214
I1281
aI1317
asI214
(lp215
I1321
asI215
(lp216
I1683
asI216
(lp217
I1776
asI217
(lp218
I1777
asI218
(lp219
I96
aI172
aI549
aI1823
asI219
(lp220
I1509
aI1835
asI220
(lp221
I431
aI1584
asI221
(lp222
I1376
asI222
(lp223
I348
asI223
(lp224
I1444
aI1459
asI224
(lp225
I1540
asI225
(lp226
I1484
aI1545
aI1548
asI226
(lp227
I1720
asI227
(lp228
I533
asI228
(lp229
I1555
asI229
(lp230
I1596
asI230
(lp231
I1614
asI231
(lp232
I1642
asI232
(lp233
I1164
asI233
(lp234
I1634
asI234
(lp235
I1744
asI235
(lp236
I1646
asI236
(lp237
I570
asI237
(lp238
I1880
asI238
(lp239
I1440
asI239
(lp240
I1668
asI240
(lp241
I1087
asI241
(lp242
I1400
asI242
(lp243
I454
asI243
(lp244
I2058
asI244
(lp245
I874
asI245
(lp246
I1298
asI246
(lp247
I1094
asI247
(lp248
I1035
asI248
(lp249
I826
asI249
(lp250
I616
asI250
(lp251
I876
asI251
(lp252
I174
asI252
(lp253
I2049
asI253
(lp254
I691
asI254
(lp255
I1150
asI255
(lp256
I463
aI548
aI1093
asI256
(lp257
I877
aI1068
asI257
(lp258
I1360
aI1766
asI258
(lp259
I1452
asI259
(lp260
I1269
asI260
(lp261
I1065
asI261
(lp262
I2020
asI262
(lp263
I360
asI263
(lp264
I1517
asI264
(lp265
I1041
asI265
(lp266
I1454
aI2051
asI266
(lp267
I330
asI267
(lp268
I1796
asI268
(lp269
I731
asI269
(lp270
I1507
asI270
(lp271
I1458
aI1778
asI271
(lp272
I1797
asI272
(lp273
I1085
asI273
(lp274
I1490
asI274
(lp275
I1423
asI275
(lp276
I1066
asI276
(lp277
I1829
asI277
(lp278
I1749
asI278
(lp279
I1639
asI279
(lp280
I1537
asI280
(lp281
I1175
asI281
(lp282
I1607
asI282
(lp283
I377
asI283
(lp284
I672
aI738
asI284
(lp285
I523
asI285
(lp286
I1896
asI286
(lp287
I2045
asI287
(lp288
I495
asI288
(lp289
I1993
asI289
(lp290
I1212
aI1530
asI290
(lp291
I701
asI291
(lp292
I225
asI292
(lp293
I732
asI293
(lp294
I20
asI294
(lp295
I385
asI295
(lp296
I284
asI296
(lp297
I2035
asI297
(lp298
I654
asI298
(lp299
I577
asI299
(lp300
I629
asI300
(lp301
I832
asI301
(lp302
I1477
asI302
(lp303
I507
asI303
(lp304
I1757
asI304
(lp305
I496
asI305
(lp306
I1732
asI306
(lp307
I493
asI307
(lp308
I1966
asI308
(lp309
I337
asI309
(lp310
I1788
asI310
(lp311
I595
asI311
(lp312
I1499
asI312
(lp313
I504
asI313
(lp314
I1320
asI314
(lp315
I1315
asI315
(lp316
I488
asI316
(lp317
I487
asI317
(lp318
I1265
asI318
(lp319
I1267
asI319
(lp320
I1245
aI1248
asI320
(lp321
I1122
asI321
(lp322
I275
asI322
(lp323
I244
asI323
(lp324
I240
asI324
(lp325
I195
asI325
(lp326
I988
asI326
(lp327
I183
asI327
(lp328
I175
asI328
(lp329
I722
asI329
(lp330
I730
asI330
(lp331
I970
asI331
(lp332
I897
aI911
asI332
(lp333
I885
asI333
(lp334
I896
asI334
(lp335
I803
asI335
(lp336
I804
asI336
(lp337
I21
aI644
asI337
(lp338
I724
asI338
(lp339
I718
asI339
(lp340
I1418
asI340
(lp341
I457
asI341
(lp342
I476
aI676
aI2046
as.